target datalayout = "e-m:e-p270:32:32-p271:32:32-p272:64:64-i64:64-i128:128-f80:128-n8:16:32:64-S128"
target triple = "x86_64-pc-linux-gnu"

%struct.pmix_output_desc_t = type { i8, i8, i32, i8, i32, ptr, ptr, i32, ptr, i32, i8, i8, i8, i8, ptr, i32, i32 }
%struct.hwloc_obj = type { i32, ptr, i32, ptr, i64, ptr, i32, i32, ptr, ptr, ptr, i32, ptr, ptr, i32, ptr, ptr, ptr, i32, i32, ptr, i32, ptr, i32, ptr, ptr, ptr, ptr, ptr, ptr, i32, ptr, i64 }

@prte_hwloc_base_output = external global i32, align 4
@pmix_output_info = external global [0 x %struct.pmix_output_desc_t], align 8
@.str = private unnamed_addr constant [28 x i8] c"Searching for %d LOGICAL PU\00", align 1
@.str.1 = private unnamed_addr constant [24 x i8] c"logical cpu %d %s found\00", align 1
@.str.2 = private unnamed_addr constant [4 x i8] c"not\00", align 1
@.str.3 = private unnamed_addr constant [3 x i8] c"is\00", align 1

; Function Attrs: inlinehint nounwind willreturn memory(read) uwtable
define internal ptr @hwloc_get_obj_by_type(ptr noundef %0, i32 noundef %1, i32 noundef %2) #2 {
  %4 = alloca ptr, align 8
  %5 = alloca ptr, align 8
  %6 = alloca i32, align 4
  %7 = alloca i32, align 4
  %8 = alloca i32, align 4
  %9 = alloca i32, align 4
  store ptr %0, ptr %5, align 8, !tbaa !3
  store i32 %1, ptr %6, align 4, !tbaa !19
  store i32 %2, ptr %7, align 4, !tbaa !19
  call void @llvm.lifetime.start.p0(i64 4, ptr %8) #10
  %10 = load ptr, ptr %5, align 8, !tbaa !3
  %11 = load i32, ptr %6, align 4, !tbaa !19
  %12 = call i32 @hwloc_get_type_depth(ptr noundef %10, i32 noundef %11)
  store i32 %12, ptr %8, align 4, !tbaa !19
  %13 = load i32, ptr %8, align 4, !tbaa !19
  %14 = icmp eq i32 %13, -1
  br i1 %14, label %15, label %16

15:                                               ; preds = %3
  store ptr null, ptr %4, align 8
  store i32 1, ptr %9, align 4
  br label %25

16:                                               ; preds = %3
  %17 = load i32, ptr %8, align 4, !tbaa !19
  %18 = icmp eq i32 %17, -2
  br i1 %18, label %19, label %20

19:                                               ; preds = %16
  store ptr null, ptr %4, align 8
  store i32 1, ptr %9, align 4
  br label %25

20:                                               ; preds = %16
  %21 = load ptr, ptr %5, align 8, !tbaa !3
  %22 = load i32, ptr %8, align 4, !tbaa !19
  %23 = load i32, ptr %7, align 4, !tbaa !19
  %24 = call ptr @hwloc_get_obj_by_depth(ptr noundef %21, i32 noundef %22, i32 noundef %23) #11
  store ptr %24, ptr %4, align 8
  store i32 1, ptr %9, align 4
  br label %25

25:                                               ; preds = %20, %19, %15
  call void @llvm.lifetime.end.p0(i64 4, ptr %8) #10
  %26 = load ptr, ptr %4, align 8
  ret ptr %26
}

; Function Attrs: nounwind uwtable
define zeroext i1 @prte_hwloc_base_core_cpus(ptr noundef %0) #0 {
  %2 = alloca i1, align 1
  %3 = alloca ptr, align 8
  %4 = alloca ptr, align 8
  %5 = alloca ptr, align 8
  %6 = alloca i32, align 4
  store ptr %0, ptr %3, align 8, !tbaa !3
  call void @llvm.lifetime.start.p0(i64 8, ptr %4) #10
  call void @llvm.lifetime.start.p0(i64 8, ptr %5) #10
  %7 = load ptr, ptr %3, align 8, !tbaa !3
  %8 = call ptr @hwloc_get_obj_by_type(ptr noundef %7, i32 noundef 2, i32 noundef 0) #11
  store ptr %8, ptr %4, align 8, !tbaa !8
  %9 = load ptr, ptr %4, align 8, !tbaa !8
  %10 = icmp eq ptr null, %9
  br i1 %10, label %11, label %12

11:                                               ; preds = %1
  store i1 false, ptr %2, align 1
  store i32 1, ptr %6, align 4
  br label %25

12:                                               ; preds = %1
  %13 = load ptr, ptr %3, align 8, !tbaa !3
  %14 = call ptr @hwloc_get_obj_by_type(ptr noundef %13, i32 noundef 3, i32 noundef 0) #11
  store ptr %14, ptr %5, align 8, !tbaa !8
  %15 = load ptr, ptr %4, align 8, !tbaa !8
  %16 = getelementptr inbounds nuw %struct.hwloc_obj, ptr %15, i32 0, i32 25
  %17 = load ptr, ptr %16, align 8, !tbaa !10
  %18 = load ptr, ptr %5, align 8, !tbaa !8
  %19 = getelementptr inbounds nuw %struct.hwloc_obj, ptr %18, i32 0, i32 25
  %20 = load ptr, ptr %19, align 8, !tbaa !10
  %21 = call i32 @hwloc_bitmap_isequal(ptr noundef %17, ptr noundef %20) #11
  %22 = icmp ne i32 %21, 0
  br i1 %22, label %23, label %24

23:                                               ; preds = %12
  store i1 false, ptr %2, align 1
  store i32 1, ptr %6, align 4
  br label %25

24:                                               ; preds = %12
  store i1 true, ptr %2, align 1
  store i32 1, ptr %6, align 4
  br label %25

25:                                               ; preds = %24, %23, %11
  call void @llvm.lifetime.end.p0(i64 8, ptr %5) #10
  call void @llvm.lifetime.end.p0(i64 8, ptr %4) #10
  %26 = load i1, ptr %2, align 1
  ret i1 %26
}

; Function Attrs: nounwind uwtable
define ptr @prte_hwloc_base_get_pu(ptr noundef %0, i1 noundef zeroext %1, i32 noundef %2) #0 {
  %4 = alloca ptr, align 8
  %5 = alloca i8, align 1
  %6 = alloca i32, align 4
  %7 = alloca i32, align 4
  %8 = alloca ptr, align 8
  store ptr %0, ptr %4, align 8, !tbaa !3
  %9 = zext i1 %1 to i8
  store i8 %9, ptr %5, align 1, !tbaa !20
  store i32 %2, ptr %6, align 4, !tbaa !19
  call void @llvm.lifetime.start.p0(i64 4, ptr %7) #10
  store i32 2, ptr %7, align 4, !tbaa !19
  call void @llvm.lifetime.start.p0(i64 8, ptr %8) #10
  %10 = load i8, ptr %5, align 1, !tbaa !20, !range !22, !noundef !23
  %11 = trunc i8 %10 to i1
  br i1 %11, label %15, label %12

12:                                               ; preds = %3
  %13 = load ptr, ptr %4, align 8, !tbaa !3
  %14 = call zeroext i1 @prte_hwloc_base_core_cpus(ptr noundef %13)
  br i1 %14, label %16, label %15

15:                                               ; preds = %12, %3
  store i32 3, ptr %7, align 4, !tbaa !19
  br label %16

16:                                               ; preds = %15, %12
  %17 = load i32, ptr @prte_hwloc_base_output, align 4, !tbaa !19
  %18 = icmp sge i32 %17, 0
  br i1 %18, label %19, label %32

19:                                               ; preds = %16
  %20 = load i32, ptr @prte_hwloc_base_output, align 4, !tbaa !19
  %21 = icmp slt i32 %20, 64
  br i1 %21, label %22, label %32

22:                                               ; preds = %19
  %23 = load i32, ptr @prte_hwloc_base_output, align 4, !tbaa !19
  %24 = sext i32 %23 to i64
  %25 = getelementptr inbounds [0 x %struct.pmix_output_desc_t], ptr @pmix_output_info, i64 0, i64 %24
  %26 = getelementptr inbounds nuw %struct.pmix_output_desc_t, ptr %25, i32 0, i32 2
  %27 = load i32, ptr %26, align 4, !tbaa !24
  %28 = icmp sge i32 %27, 5
  br i1 %28, label %29, label %32

29:                                               ; preds = %22
  %30 = load i32, ptr @prte_hwloc_base_output, align 4, !tbaa !19
  %31 = load i32, ptr %6, align 4, !tbaa !19
  call void (i32, ptr, ...) @pmix_output(i32 noundef %30, ptr noundef @.str, i32 noundef %31)
  br label %32

32:                                               ; preds = %29, %22, %19, %16
  %33 = load ptr, ptr %4, align 8, !tbaa !3
  %34 = load i32, ptr %7, align 4, !tbaa !19
  %35 = load i32, ptr %6, align 4, !tbaa !19
  %36 = call ptr @hwloc_get_obj_by_type(ptr noundef %33, i32 noundef %34, i32 noundef %35) #11
  store ptr %36, ptr %8, align 8, !tbaa !8
  %37 = load i32, ptr @prte_hwloc_base_output, align 4, !tbaa !19
  %38 = icmp sge i32 %37, 0
  br i1 %38, label %39, label %55

39:                                               ; preds = %32
  %40 = load i32, ptr @prte_hwloc_base_output, align 4, !tbaa !19
  %41 = icmp slt i32 %40, 64
  br i1 %41, label %42, label %55

42:                                               ; preds = %39
  %43 = load i32, ptr @prte_hwloc_base_output, align 4, !tbaa !19
  %44 = sext i32 %43 to i64
  %45 = getelementptr inbounds [0 x %struct.pmix_output_desc_t], ptr @pmix_output_info, i64 0, i64 %44
  %46 = getelementptr inbounds nuw %struct.pmix_output_desc_t, ptr %45, i32 0, i32 2
  %47 = load i32, ptr %46, align 4, !tbaa !24
  %48 = icmp sge i32 %47, 5
  br i1 %48, label %49, label %55

49:                                               ; preds = %42
  %50 = load i32, ptr @prte_hwloc_base_output, align 4, !tbaa !19
  %51 = load i32, ptr %6, align 4, !tbaa !19
  %52 = load ptr, ptr %8, align 8, !tbaa !8
  %53 = icmp eq ptr null, %52
  %54 = select i1 %53, ptr @.str.2, ptr @.str.3
  call void (i32, ptr, ...) @pmix_output(i32 noundef %50, ptr noundef @.str.1, i32 noundef %51, ptr noundef %54)
  br label %55

55:                                               ; preds = %49, %42, %39, %32
  %56 = load ptr, ptr %8, align 8, !tbaa !8
  call void @llvm.lifetime.end.p0(i64 8, ptr %8) #10
  call void @llvm.lifetime.end.p0(i64 4, ptr %7) #10
  ret ptr %56
}