; Function Attrs: nounwind uwtable
define ptr @prte_hwloc_base_get_pu(ptr noundef %0, i1 noundef zeroext %1, i32 noundef %2) local_unnamed_addr #0 {
  br i1 %1, label %prte_hwloc_base_core_cpus.exit.thread, label %4

4:                                                ; preds = %3
  %5 = tail call i32 @hwloc_get_type_depth(ptr noundef %0, i32 noundef 2) #18
  %switch.i.i = icmp ugt i32 %5, -3
  br i1 %switch.i.i, label %prte_hwloc_base_core_cpus.exit.thread, label %hwloc_get_obj_by_type.exit.i

hwloc_get_obj_by_type.exit.i:                     ; preds = %4
  %6 = tail call ptr @hwloc_get_obj_by_depth(ptr noundef %0, i32 noundef %5, i32 noundef 0) #19
  %7 = icmp eq ptr %6, null
  br i1 %7, label %prte_hwloc_base_core_cpus.exit.thread, label %prte_hwloc_base_core_cpus.exit

prte_hwloc_base_core_cpus.exit:                   ; preds = %hwloc_get_obj_by_type.exit.i
  %8 = tail call i32 @hwloc_get_type_depth(ptr noundef %0, i32 noundef 3) #18
  %switch.i7.i = icmp ult i32 %8, -2
  tail call void @llvm.assume(i1 %switch.i7.i)
  %9 = tail call ptr @hwloc_get_obj_by_depth(ptr noundef %0, i32 noundef %8, i32 noundef 0) #19
  %10 = getelementptr inbounds nuw i8, ptr %6, i64 184
  %11 = load ptr, ptr %10, align 8, !tbaa !3
  %12 = getelementptr inbounds nuw i8, ptr %9, i64 184
  %13 = load ptr, ptr %12, align 8, !tbaa !3
  %14 = tail call i32 @hwloc_bitmap_isequal(ptr noundef %11, ptr noundef %13) #19
  %.not.i = icmp eq i32 %14, 0
  br i1 %.not.i, label %15, label %prte_hwloc_base_core_cpus.exit.thread

prte_hwloc_base_core_cpus.exit.thread:            ; preds = %4, %hwloc_get_obj_by_type.exit.i, %prte_hwloc_base_core_cpus.exit, %3
  br label %15

15:                                               ; preds = %prte_hwloc_base_core_cpus.exit.thread, %prte_hwloc_base_core_cpus.exit
  %.0 = phi i32 [ 3, %prte_hwloc_base_core_cpus.exit.thread ], [ 2, %prte_hwloc_base_core_cpus.exit ]
  %16 = load i32, ptr @prte_hwloc_base_output, align 4, !tbaa !16
  %or.cond = icmp ult i32 %16, 64
  br i1 %or.cond, label %17, label %23

17:                                               ; preds = %15
  %18 = zext nneg i32 %16 to i64
  %19 = getelementptr inbounds nuw [0 x %struct.pmix_output_desc_t], ptr @pmix_output_info, i64 0, i64 %18, i32 2
  %20 = load i32, ptr %19, align 4, !tbaa !17
  %21 = icmp sgt i32 %20, 4
  br i1 %21, label %22, label %23

22:                                               ; preds = %17
  tail call void (i32, ptr, ...) @pmix_output(i32 noundef %16, ptr noundef nonnull @.str, i32 noundef %2) #18
  br label %23

23:                                               ; preds = %22, %17, %15
  %24 = tail call i32 @hwloc_get_type_depth(ptr noundef %0, i32 noundef range(i32 14, 13) %.0) #18
  %switch.i = icmp ugt i32 %24, -3
  br i1 %switch.i, label %hwloc_get_obj_by_type.exit, label %25

25:                                               ; preds = %23
  %26 = tail call ptr @hwloc_get_obj_by_depth(ptr noundef %0, i32 noundef %24, i32 noundef %2) #19
  br label %hwloc_get_obj_by_type.exit

hwloc_get_obj_by_type.exit:                       ; preds = %23, %25
  %.0.i13 = phi ptr [ %26, %25 ], [ null, %23 ]
  %27 = load i32, ptr @prte_hwloc_base_output, align 4, !tbaa !16
  %or.cond3 = icmp ult i32 %27, 64
  br i1 %or.cond3, label %28, label %36

28:                                               ; preds = %hwloc_get_obj_by_type.exit
  %29 = zext nneg i32 %27 to i64
  %30 = getelementptr inbounds nuw [0 x %struct.pmix_output_desc_t], ptr @pmix_output_info, i64 0, i64 %29, i32 2
  %31 = load i32, ptr %30, align 4, !tbaa !17
  %32 = icmp sgt i32 %31, 4
  br i1 %32, label %33, label %36

33:                                               ; preds = %28
  %34 = icmp eq ptr %.0.i13, null
  %35 = select i1 %34, ptr @.str.2, ptr @.str.3
  tail call void (i32, ptr, ...) @pmix_output(i32 noundef %27, ptr noundef nonnull @.str.1, i32 noundef %2, ptr noundef nonnull %35) #18
  br label %36

36:                                               ; preds = %33, %28, %hwloc_get_obj_by_type.exit
  ret ptr %.0.i13
}